; ModuleID = '22/412.c'
source_filename = "22/412.c"
target datalayout = "e-m:e-p270:32:32-p271:32:32-p272:64:64-i64:64-f80:128-n8:16:32:64-S128"
target triple = "x86_64-pc-linux-gnu"

@.str = private unnamed_addr constant [5 x i8] c"%d%c\00", align 1
@.str.1 = private unnamed_addr constant [3 x i8] c"No\00", align 1
@.str.2 = private unnamed_addr constant [3 x i8] c"%d\00", align 1

; Function Attrs: noinline nounwind uwtable
define dso_local i32 @main() #0 {
  %1 = alloca i32, align 4
  %2 = alloca [300 x i32], align 16
  %3 = alloca i32, align 4
  %4 = alloca i32, align 4
  %5 = alloca i32, align 4
  %6 = alloca i32, align 4
  %7 = alloca i32, align 4
  %8 = alloca i8, align 1
  store i32 0, i32* %1, align 4
  store i32 0, i32* %5, align 4
  store i32 0, i32* %6, align 4
  store i32 0, i32* %7, align 4
  store i32 0, i32* %3, align 4
  br label %9

9:                                                ; preds = %24, %0
  %10 = load i32, i32* %3, align 4
  %11 = icmp slt i32 %10, 300
  br i1 %11, label %12, label %27

12:                                               ; preds = %9
  %13 = load i32, i32* %3, align 4
  %14 = sext i32 %13 to i64
  %15 = getelementptr inbounds [300 x i32], [300 x i32]* %2, i64 0, i64 %14
  %16 = call i32 (i8*, ...) @__isoc99_scanf(i8* getelementptr inbounds ([5 x i8], [5 x i8]* @.str, i64 0, i64 0), i32* %15, i8* %8)
  %17 = load i32, i32* %5, align 4
  %18 = add nsw i32 %17, 1
  store i32 %18, i32* %5, align 4
  %19 = load i8, i8* %8, align 1
  %20 = sext i8 %19 to i32
  %21 = icmp ne i32 %20, 44
  br i1 %21, label %22, label %23

22:                                               ; preds = %12
  store i32 300, i32* %3, align 4
  br label %23

23:                                               ; preds = %22, %12
  br label %24

24:                                               ; preds = %23
  %25 = load i32, i32* %3, align 4
  %26 = add nsw i32 %25, 1
  store i32 %26, i32* %3, align 4
  br label %9

27:                                               ; preds = %9
  %28 = load i32, i32* %5, align 4
  %29 = icmp eq i32 %28, 1
  br i1 %29, label %30, label %32

30:                                               ; preds = %27
  %31 = call i32 (i8*, ...) @printf(i8* getelementptr inbounds ([3 x i8], [3 x i8]* @.str.1, i64 0, i64 0))
  br label %138

32:                                               ; preds = %27
  store i32 0, i32* %3, align 4
  br label %33

33:                                               ; preds = %84, %32
  %34 = load i32, i32* %3, align 4
  %35 = load i32, i32* %5, align 4
  %36 = icmp slt i32 %34, %35
  br i1 %36, label %37, label %87

37:                                               ; preds = %33
  store i32 0, i32* %4, align 4
  br label %38

38:                                               ; preds = %73, %37
  %39 = load i32, i32* %4, align 4
  %40 = load i32, i32* %5, align 4
  %41 = icmp slt i32 %39, %40
  br i1 %41, label %42, label %76

42:                                               ; preds = %38
  %43 = load i32, i32* %3, align 4
  %44 = sext i32 %43 to i64
  %45 = getelementptr inbounds [300 x i32], [300 x i32]* %2, i64 0, i64 %44
  %46 = load i32, i32* %45, align 4
  %47 = load i32, i32* %4, align 4
  %48 = sext i32 %47 to i64
  %49 = getelementptr inbounds [300 x i32], [300 x i32]* %2, i64 0, i64 %48
  %50 = load i32, i32* %49, align 4
  %51 = icmp eq i32 %46, %50
  br i1 %51, label %52, label %57

52:                                               ; preds = %42
  %53 = load i32, i32* %7, align 4
  %54 = add nsw i32 %53, 1
  store i32 %54, i32* %7, align 4
  %55 = load i32, i32* %6, align 4
  %56 = add nsw i32 %55, 1
  store i32 %56, i32* %6, align 4
  br label %72

57:                                               ; preds = %42
  %58 = load i32, i32* %3, align 4
  %59 = sext i32 %58 to i64
  %60 = getelementptr inbounds [300 x i32], [300 x i32]* %2, i64 0, i64 %59
  %61 = load i32, i32* %60, align 4
  %62 = load i32, i32* %4, align 4
  %63 = sext i32 %62 to i64
  %64 = getelementptr inbounds [300 x i32], [300 x i32]* %2, i64 0, i64 %63
  %65 = load i32, i32* %64, align 4
  %66 = icmp sgt i32 %61, %65
  br i1 %66, label %67, label %71

67:                                               ; preds = %57
  %68 = load i32, i32* %6, align 4
  %69 = add nsw i32 %68, 1
  store i32 %69, i32* %6, align 4
  %70 = load i32, i32* %7, align 4
  store i32 %70, i32* %7, align 4
  br label %71

71:                                               ; preds = %67, %57
  br label %72

72:                                               ; preds = %71, %52
  br label %73

73:                                               ; preds = %72
  %74 = load i32, i32* %4, align 4
  %75 = add nsw i32 %74, 1
  store i32 %75, i32* %4, align 4
  br label %38

76:                                               ; preds = %38
  %77 = load i32, i32* %6, align 4
  %78 = load i32, i32* %5, align 4
  %79 = icmp eq i32 %77, %78
  br i1 %79, label %80, label %82

80:                                               ; preds = %76
  %81 = load i32, i32* %5, align 4
  store i32 %81, i32* %3, align 4
  br label %83

82:                                               ; preds = %76
  store i32 0, i32* %6, align 4
  store i32 0, i32* %7, align 4
  br label %83

83:                                               ; preds = %82, %80
  br label %84

84:                                               ; preds = %83
  %85 = load i32, i32* %3, align 4
  %86 = add nsw i32 %85, 1
  store i32 %86, i32* %3, align 4
  br label %33

87:                                               ; preds = %33
  %88 = load i32, i32* %7, align 4
  %89 = load i32, i32* %5, align 4
  %90 = icmp eq i32 %88, %89
  br i1 %90, label %91, label %93

91:                                               ; preds = %87
  %92 = call i32 (i8*, ...) @printf(i8* getelementptr inbounds ([3 x i8], [3 x i8]* @.str.1, i64 0, i64 0))
  br label %137

93:                                               ; preds = %87
  store i32 0, i32* %6, align 4
  store i32 0, i32* %3, align 4
  br label %94

94:                                               ; preds = %133, %93
  %95 = load i32, i32* %3, align 4
  %96 = load i32, i32* %5, align 4
  %97 = icmp slt i32 %95, %96
  br i1 %97, label %98, label %136

98:                                               ; preds = %94
  store i32 0, i32* %4, align 4
  br label %99

99:                                               ; preds = %117, %98
  %100 = load i32, i32* %4, align 4
  %101 = load i32, i32* %5, align 4
  %102 = icmp slt i32 %100, %101
  br i1 %102, label %103, label %120

103:                                              ; preds = %99
  %104 = load i32, i32* %3, align 4
  %105 = sext i32 %104 to i64
  %106 = getelementptr inbounds [300 x i32], [300 x i32]* %2, i64 0, i64 %105
  %107 = load i32, i32* %106, align 4
  %108 = load i32, i32* %4, align 4
  %109 = sext i32 %108 to i64
  %110 = getelementptr inbounds [300 x i32], [300 x i32]* %2, i64 0, i64 %109
  %111 = load i32, i32* %110, align 4
  %112 = icmp sge i32 %107, %111
  br i1 %112, label %113, label %116

113:                                              ; preds = %103
  %114 = load i32, i32* %6, align 4
  %115 = add nsw i32 %114, 1
  store i32 %115, i32* %6, align 4
  br label %116

116:                                              ; preds = %113, %103
  br label %117

117:                                              ; preds = %116
  %118 = load i32, i32* %4, align 4
  %119 = add nsw i32 %118, 1
  store i32 %119, i32* %4, align 4
  br label %99

120:                                              ; preds = %99
  %121 = load i32, i32* %6, align 4
  %122 = load i32, i32* %5, align 4
  %123 = load i32, i32* %7, align 4
  %124 = sub nsw i32 %122, %123
  %125 = icmp eq i32 %121, %124
  br i1 %125, label %126, label %132

126:                                              ; preds = %120
  %127 = load i32, i32* %3, align 4
  %128 = sext i32 %127 to i64
  %129 = getelementptr inbounds [300 x i32], [300 x i32]* %2, i64 0, i64 %128
  %130 = load i32, i32* %129, align 4
  %131 = call i32 (i8*, ...) @printf(i8* getelementptr inbounds ([3 x i8], [3 x i8]* @.str.2, i64 0, i64 0), i32 %130)
  br label %136

132:                                              ; preds = %120
  store i32 0, i32* %6, align 4
  br label %133

133:                                              ; preds = %132
  %134 = load i32, i32* %3, align 4
  %135 = add nsw i32 %134, 1
  store i32 %135, i32* %3, align 4
  br label %94

136:                                              ; preds = %126, %94
  br label %137

137:                                              ; preds = %136, %91
  br label %138

138:                                              ; preds = %137, %30
  ret i32 0
}

declare dso_local i32 @__isoc99_scanf(i8*, ...) #1

declare dso_local i32 @printf(i8*, ...) #1


!llvm.module.flags = !{!0}
!llvm.ident = !{!1}

!0 = !{i32 1, !"wchar_size", i32 4}
!1 = !{!"clang version 10.0.0-4ubuntu1 "}
